; Function Attrs: mustprogress uwtable
define internal void @_ZN6duckdbL10PiFunctionERNS_9DataChunkERNS_15ExpressionStateERNS_6VectorE(ptr nonnull readnone align 8 captures(none) %0, ptr nonnull readnone align 8 captures(none) %1, ptr noundef nonnull align 8 dereferenceable(104) %2) #0 personality ptr @__gxx_personality_v0 {
  %4 = alloca %"class.duckdb::Value", align 8
  call void @llvm.lifetime.start.p0(i64 64, ptr nonnull %4) #23
  %5 = load double, ptr @_ZN6duckdb2PIE, align 8, !tbaa !376
  call void @_ZN6duckdb5Value6DOUBLEEd(ptr dead_on_unwind nonnull writable sret(%"class.duckdb::Value") align 8 %4, double noundef %5)
  invoke void @_ZN6duckdb6Vector9ReferenceERKNS_5ValueE(ptr noundef nonnull align 8 dereferenceable(104) %2, ptr noundef nonnull align 8 dereferenceable(64) %4)
          to label %6 unwind label %7

6:                                                ; preds = %3
  call void @_ZN6duckdb5ValueD1Ev(ptr noundef nonnull align 8 dereferenceable(64) %4) #23
  call void @llvm.lifetime.end.p0(i64 64, ptr nonnull %4) #23
  ret void

7:                                                ; preds = %3
  %8 = landingpad { ptr, i32 }
          cleanup
  call void @_ZN6duckdb5ValueD1Ev(ptr noundef nonnull align 8 dereferenceable(64) %4) #23
  call void @llvm.lifetime.end.p0(i64 64, ptr nonnull %4) #23
  resume { ptr, i32 } %8
}